; ModuleID = '14/1552.c'
source_filename = "14/1552.c"
target datalayout = "e-m:e-p270:32:32-p271:32:32-p272:64:64-i64:64-f80:128-n8:16:32:64-S128"
target triple = "x86_64-pc-linux-gnu"

%struct.stu = type { i32, i32, i32 }

@.str = private unnamed_addr constant [3 x i8] c"%d\00", align 1
@.str.1 = private unnamed_addr constant [9 x i8] c"%d %d %d\00", align 1
@.str.2 = private unnamed_addr constant [7 x i8] c"%d %d\0A\00", align 1

; Function Attrs: noinline nounwind uwtable
define dso_local void @main() #0 {
  %1 = alloca i32, align 4
  %2 = alloca i32, align 4
  %3 = alloca i32, align 4
  %4 = alloca %struct.stu*, align 8
  %5 = alloca %struct.stu*, align 8
  %6 = alloca i32, align 4
  store i32 0, i32* %3, align 4
  %7 = call i32 (i8*, ...) @__isoc99_scanf(i8* getelementptr inbounds ([3 x i8], [3 x i8]* @.str, i64 0, i64 0), i32* %2)
  %8 = call noalias i8* @malloc(i64 1200000) #3
  %9 = bitcast i8* %8 to %struct.stu*
  store %struct.stu* %9, %struct.stu** %5, align 8
  store %struct.stu* %9, %struct.stu** %4, align 8
  store i32 0, i32* %1, align 4
  br label %10

10:                                               ; preds = %22, %0
  %11 = load i32, i32* %1, align 4
  %12 = load i32, i32* %2, align 4
  %13 = icmp slt i32 %11, %12
  br i1 %13, label %14, label %27

14:                                               ; preds = %10
  %15 = load %struct.stu*, %struct.stu** %5, align 8
  %16 = getelementptr inbounds %struct.stu, %struct.stu* %15, i32 0, i32 0
  %17 = load %struct.stu*, %struct.stu** %5, align 8
  %18 = getelementptr inbounds %struct.stu, %struct.stu* %17, i32 0, i32 1
  %19 = load %struct.stu*, %struct.stu** %5, align 8
  %20 = getelementptr inbounds %struct.stu, %struct.stu* %19, i32 0, i32 2
  %21 = call i32 (i8*, ...) @__isoc99_scanf(i8* getelementptr inbounds ([9 x i8], [9 x i8]* @.str.1, i64 0, i64 0), i32* %16, i32* %18, i32* %20)
  br label %22

22:                                               ; preds = %14
  %23 = load i32, i32* %1, align 4
  %24 = add nsw i32 %23, 1
  store i32 %24, i32* %1, align 4
  %25 = load %struct.stu*, %struct.stu** %5, align 8
  %26 = getelementptr inbounds %struct.stu, %struct.stu* %25, i32 1
  store %struct.stu* %26, %struct.stu** %5, align 8
  br label %10

27:                                               ; preds = %10
  store i32 0, i32* %6, align 4
  br label %28

28:                                               ; preds = %101, %27
  %29 = load %struct.stu*, %struct.stu** %4, align 8
  store %struct.stu* %29, %struct.stu** %5, align 8
  store i32 0, i32* %1, align 4
  br label %30

30:                                               ; preds = %53, %28
  %31 = load i32, i32* %1, align 4
  %32 = load i32, i32* %2, align 4
  %33 = icmp slt i32 %31, %32
  br i1 %33, label %34, label %58

34:                                               ; preds = %30
  %35 = load %struct.stu*, %struct.stu** %5, align 8
  %36 = getelementptr inbounds %struct.stu, %struct.stu* %35, i32 0, i32 1
  %37 = load i32, i32* %36, align 4
  %38 = load %struct.stu*, %struct.stu** %5, align 8
  %39 = getelementptr inbounds %struct.stu, %struct.stu* %38, i32 0, i32 2
  %40 = load i32, i32* %39, align 4
  %41 = add nsw i32 %37, %40
  %42 = load i32, i32* %6, align 4
  %43 = icmp sgt i32 %41, %42
  br i1 %43, label %44, label %52

44:                                               ; preds = %34
  %45 = load %struct.stu*, %struct.stu** %5, align 8
  %46 = getelementptr inbounds %struct.stu, %struct.stu* %45, i32 0, i32 1
  %47 = load i32, i32* %46, align 4
  %48 = load %struct.stu*, %struct.stu** %5, align 8
  %49 = getelementptr inbounds %struct.stu, %struct.stu* %48, i32 0, i32 2
  %50 = load i32, i32* %49, align 4
  %51 = add nsw i32 %47, %50
  store i32 %51, i32* %6, align 4
  br label %52

52:                                               ; preds = %44, %34
  br label %53

53:                                               ; preds = %52
  %54 = load i32, i32* %1, align 4
  %55 = add nsw i32 %54, 1
  store i32 %55, i32* %1, align 4
  %56 = load %struct.stu*, %struct.stu** %5, align 8
  %57 = getelementptr inbounds %struct.stu, %struct.stu* %56, i32 1
  store %struct.stu* %57, %struct.stu** %5, align 8
  br label %30

58:                                               ; preds = %30
  %59 = load %struct.stu*, %struct.stu** %4, align 8
  store %struct.stu* %59, %struct.stu** %5, align 8
  store i32 0, i32* %1, align 4
  br label %60

60:                                               ; preds = %93, %58
  %61 = load i32, i32* %1, align 4
  %62 = load i32, i32* %2, align 4
  %63 = icmp slt i32 %61, %62
  br i1 %63, label %64, label %98

64:                                               ; preds = %60
  %65 = load %struct.stu*, %struct.stu** %5, align 8
  %66 = getelementptr inbounds %struct.stu, %struct.stu* %65, i32 0, i32 1
  %67 = load i32, i32* %66, align 4
  %68 = load %struct.stu*, %struct.stu** %5, align 8
  %69 = getelementptr inbounds %struct.stu, %struct.stu* %68, i32 0, i32 2
  %70 = load i32, i32* %69, align 4
  %71 = add nsw i32 %67, %70
  %72 = load i32, i32* %6, align 4
  %73 = icmp eq i32 %71, %72
  br i1 %73, label %74, label %92

74:                                               ; preds = %64
  %75 = load %struct.stu*, %struct.stu** %5, align 8
  %76 = getelementptr inbounds %struct.stu, %struct.stu* %75, i32 0, i32 0
  %77 = load i32, i32* %76, align 4
  %78 = load %struct.stu*, %struct.stu** %5, align 8
  %79 = getelementptr inbounds %struct.stu, %struct.stu* %78, i32 0, i32 1
  %80 = load i32, i32* %79, align 4
  %81 = load %struct.stu*, %struct.stu** %5, align 8
  %82 = getelementptr inbounds %struct.stu, %struct.stu* %81, i32 0, i32 2
  %83 = load i32, i32* %82, align 4
  %84 = add nsw i32 %80, %83
  %85 = call i32 (i8*, ...) @printf(i8* getelementptr inbounds ([7 x i8], [7 x i8]* @.str.2, i64 0, i64 0), i32 %77, i32 %84)
  %86 = load %struct.stu*, %struct.stu** %5, align 8
  %87 = getelementptr inbounds %struct.stu, %struct.stu* %86, i32 0, i32 1
  store i32 0, i32* %87, align 4
  %88 = load %struct.stu*, %struct.stu** %5, align 8
  %89 = getelementptr inbounds %struct.stu, %struct.stu* %88, i32 0, i32 2
  store i32 0, i32* %89, align 4
  store i32 0, i32* %6, align 4
  %90 = load i32, i32* %3, align 4
  %91 = add nsw i32 %90, 1
  store i32 %91, i32* %3, align 4
  br label %98

92:                                               ; preds = %64
  br label %93

93:                                               ; preds = %92
  %94 = load i32, i32* %1, align 4
  %95 = add nsw i32 %94, 1
  store i32 %95, i32* %1, align 4
  %96 = load %struct.stu*, %struct.stu** %5, align 8
  %97 = getelementptr inbounds %struct.stu, %struct.stu* %96, i32 1
  store %struct.stu* %97, %struct.stu** %5, align 8
  br label %60

98:                                               ; preds = %74, %60
  %99 = load i32, i32* %3, align 4
  %100 = icmp sle i32 %99, 2
  br i1 %100, label %101, label %102

101:                                              ; preds = %98
  br label %28

102:                                              ; preds = %98
  ret void
}

declare dso_local i32 @__isoc99_scanf(i8*, ...) #1

; Function Attrs: nounwind
declare dso_local noalias i8* @malloc(i64) #2

declare dso_local i32 @printf(i8*, ...) #1


!llvm.module.flags = !{!0}
!llvm.ident = !{!1}

!0 = !{i32 1, !"wchar_size", i32 4}
!1 = !{!"clang version 10.0.0-4ubuntu1 "}
